target datalayout = "e-m:e-p270:32:32-p271:32:32-p272:64:64-i64:64-i128:128-f80:128-n8:16:32:64-S128"
target triple = "x86_64-pc-linux-gnu"

%"class.cv::bioinspired::ImageLogPolProjection" = type <{ ptr, %"class.cv::bioinspired::BasicRetinaFilter", i32, i32, i32, i32, i32, i32, i8, [7 x i8], double, double, double, double, double, %"class.std::valarray", ptr, %"class.std::valarray.0", ptr, i32, i8, [3 x i8] }>
%"class.cv::bioinspired::BasicRetinaFilter" = type { %"class.cv::bioinspired::TemplateBuffer", %"class.std::valarray", i32, i32, %"class.std::valarray", %"class.std::valarray", %"class.std::valarray", float, float, float, float, float, float, float, float }
%"class.cv::bioinspired::TemplateBuffer" = type { ptr, %"class.std::valarray", i64, i64, i64, i64, i64 }
%"class.std::valarray" = type { i64, ptr }
%"class.std::valarray.0" = type { i64, ptr }

; Function Attrs: inlinehint mustprogress uwtable
define linkonce_odr hidden noundef nonnull align 8 dereferenceable(64) ptr @_ZN2cv11bioinspired14TemplateBufferIfEaSERKf(ptr noundef nonnull align 8 dereferenceable(64) %0, ptr noundef nonnull align 4 dereferenceable(4) %1) #5 comdat align 2 {
  %3 = alloca ptr, align 8
  %4 = alloca ptr, align 8
  store ptr %0, ptr %3, align 8, !tbaa !69
  store ptr %1, ptr %4, align 8, !tbaa !45
  %5 = load ptr, ptr %3, align 8
  %6 = getelementptr inbounds i8, ptr %5, i64 8
  %7 = load ptr, ptr %4, align 8, !tbaa !45
  %8 = call noundef nonnull align 8 dereferenceable(16) ptr @_ZNSt8valarrayIfEaSERKf(ptr noundef nonnull align 8 dereferenceable(16) %6, ptr noundef nonnull align 4 dereferenceable(4) %7)
  ret ptr %5
}

; Function Attrs: inlinehint mustprogress uwtable
define linkonce_odr hidden void @_ZN2cv11bioinspired17BasicRetinaFilter20clearSecondaryBufferEv(ptr noundef nonnull align 8 dereferenceable(168) %0) #5 comdat align 2 {
  %2 = alloca ptr, align 8
  %3 = alloca float, align 4
  store ptr %0, ptr %2, align 8, !tbaa !46
  %4 = load ptr, ptr %2, align 8
  call void @llvm.lifetime.start.p0(i64 4, ptr %3) #3
  store float 0.000000e+00, ptr %3, align 4, !tbaa !44
  %5 = getelementptr inbounds nuw %"class.cv::bioinspired::BasicRetinaFilter", ptr %4, i32 0, i32 1
  %6 = call noundef nonnull align 8 dereferenceable(16) ptr @_ZNSt8valarrayIfEaSERKf(ptr noundef nonnull align 8 dereferenceable(16) %5, ptr noundef nonnull align 4 dereferenceable(4) %3)
  call void @llvm.lifetime.end.p0(i64 4, ptr %3) #3
  ret void
}

; Function Attrs: inlinehint mustprogress uwtable
define linkonce_odr hidden void @_ZN2cv11bioinspired17BasicRetinaFilter17clearOutputBufferEv(ptr noundef nonnull align 8 dereferenceable(168) %0) #5 comdat align 2 {
  %2 = alloca ptr, align 8
  %3 = alloca float, align 4
  store ptr %0, ptr %2, align 8, !tbaa !46
  %4 = load ptr, ptr %2, align 8
  call void @llvm.lifetime.start.p0(i64 4, ptr %3) #3
  store float 0.000000e+00, ptr %3, align 4, !tbaa !44
  %5 = getelementptr inbounds nuw %"class.cv::bioinspired::BasicRetinaFilter", ptr %4, i32 0, i32 0
  %6 = call noundef nonnull align 8 dereferenceable(64) ptr @_ZN2cv11bioinspired14TemplateBufferIfEaSERKf(ptr noundef nonnull align 8 dereferenceable(64) %5, ptr noundef nonnull align 4 dereferenceable(4) %3)
  call void @llvm.lifetime.end.p0(i64 4, ptr %3) #3
  ret void
}

; Function Attrs: inlinehint mustprogress nounwind uwtable
define linkonce_odr void @_ZSt15__valarray_fillIfEvPT_mRKS0_(ptr noalias noundef %0, i64 noundef %1, ptr noundef nonnull align 4 dereferenceable(4) %2) #6 comdat {
  %4 = alloca ptr, align 8
  %5 = alloca i64, align 8
  %6 = alloca ptr, align 8
  store ptr %0, ptr %4, align 8, !tbaa !45
  store i64 %1, ptr %5, align 8, !tbaa !37
  store ptr %2, ptr %6, align 8, !tbaa !45
  br label %7

7:                                                ; preds = %11, %3
  %8 = load i64, ptr %5, align 8, !tbaa !37
  %9 = add i64 %8, -1
  store i64 %9, ptr %5, align 8, !tbaa !37
  %10 = icmp ne i64 %8, 0
  br i1 %10, label %11, label %16

11:                                               ; preds = %7
  %12 = load ptr, ptr %6, align 8, !tbaa !45
  %13 = load float, ptr %12, align 4, !tbaa !44
  %14 = load ptr, ptr %4, align 8, !tbaa !45
  %15 = getelementptr inbounds nuw float, ptr %14, i32 1
  store ptr %15, ptr %4, align 8, !tbaa !45
  store float %13, ptr %14, align 4, !tbaa !44
  br label %7, !llvm.loop !96

16:                                               ; preds = %7
  ret void
}

; Function Attrs: inlinehint mustprogress uwtable
define linkonce_odr hidden void @_ZN2cv11bioinspired17BasicRetinaFilter15clearAllBuffersEv(ptr noundef nonnull align 8 dereferenceable(168) %0) #5 comdat align 2 {
  %2 = alloca ptr, align 8
  store ptr %0, ptr %2, align 8, !tbaa !46
  %3 = load ptr, ptr %2, align 8
  call void @_ZN2cv11bioinspired17BasicRetinaFilter17clearOutputBufferEv(ptr noundef nonnull align 8 dereferenceable(168) %3)
  call void @_ZN2cv11bioinspired17BasicRetinaFilter20clearSecondaryBufferEv(ptr noundef nonnull align 8 dereferenceable(168) %3)
  ret void
}

; Function Attrs: inlinehint mustprogress uwtable
define linkonce_odr hidden noundef nonnull align 8 dereferenceable(16) ptr @_ZNSt8valarrayIfEaSERKf(ptr noundef nonnull align 8 dereferenceable(16) %0, ptr noundef nonnull align 4 dereferenceable(4) %1) #5 comdat align 2 {
  %3 = alloca ptr, align 8
  %4 = alloca ptr, align 8
  store ptr %0, ptr %3, align 8, !tbaa !16
  store ptr %1, ptr %4, align 8, !tbaa !45
  %5 = load ptr, ptr %3, align 8
  %6 = getelementptr inbounds nuw %"class.std::valarray", ptr %5, i32 0, i32 1
  %7 = load ptr, ptr %6, align 8, !tbaa !39
  %8 = getelementptr inbounds nuw %"class.std::valarray", ptr %5, i32 0, i32 0
  %9 = load i64, ptr %8, align 8, !tbaa !38
  %10 = load ptr, ptr %4, align 8, !tbaa !45
  call void @_ZSt15__valarray_fillIfEvPT_mRKS0_(ptr noundef %7, i64 noundef %9, ptr noundef nonnull align 4 dereferenceable(4) %10)
  ret ptr %5
}

; Function Attrs: mustprogress uwtable
define hidden void @_ZN2cv11bioinspired21ImageLogPolProjection15clearAllBuffersEv(ptr noundef nonnull align 8 dereferenceable(301) %0) #4 align 2 {
  %2 = alloca ptr, align 8
  %3 = alloca float, align 4
  %4 = alloca float, align 4
  store ptr %0, ptr %2, align 8, !tbaa !3
  %5 = load ptr, ptr %2, align 8
  call void @llvm.lifetime.start.p0(i64 4, ptr %3) #3
  store float 0.000000e+00, ptr %3, align 4, !tbaa !44
  %6 = getelementptr inbounds nuw %"class.cv::bioinspired::ImageLogPolProjection", ptr %5, i32 0, i32 15
  %7 = call noundef nonnull align 8 dereferenceable(16) ptr @_ZNSt8valarrayIfEaSERKf(ptr noundef nonnull align 8 dereferenceable(16) %6, ptr noundef nonnull align 4 dereferenceable(4) %3)
  call void @llvm.lifetime.end.p0(i64 4, ptr %3) #3
  call void @llvm.lifetime.start.p0(i64 4, ptr %4) #3
  store float 0.000000e+00, ptr %4, align 4, !tbaa !44
  %8 = getelementptr inbounds nuw %"class.cv::bioinspired::ImageLogPolProjection", ptr %5, i32 0, i32 16
  %9 = load ptr, ptr %8, align 8, !tbaa !36
  %10 = call noundef nonnull align 8 dereferenceable(16) ptr @_ZNSt8valarrayIfEaSERKf(ptr noundef nonnull align 8 dereferenceable(16) %9, ptr noundef nonnull align 4 dereferenceable(4) %4)
  call void @llvm.lifetime.end.p0(i64 4, ptr %4) #3
  %11 = getelementptr inbounds i8, ptr %5, i64 8
  call void @_ZN2cv11bioinspired17BasicRetinaFilter15clearAllBuffersEv(ptr noundef nonnull align 8 dereferenceable(168) %11)
  ret void
}

; Function Attrs: mustprogress uwtable
define hidden void @_ZN2cv11bioinspired21ImageLogPolProjection6resizeEjj(ptr noundef nonnull align 8 dereferenceable(301) %0, i32 noundef %1, i32 noundef %2) #4 align 2 {
  %4 = alloca ptr, align 8
  %5 = alloca i32, align 4
  %6 = alloca i32, align 4
  store ptr %0, ptr %4, align 8, !tbaa !3
  store i32 %1, ptr %5, align 4, !tbaa !8
  store i32 %2, ptr %6, align 4, !tbaa !8
  %7 = load ptr, ptr %4, align 8
  %8 = getelementptr inbounds i8, ptr %7, i64 8
  %9 = load i32, ptr %5, align 4, !tbaa !8
  %10 = load i32, ptr %6, align 4, !tbaa !8
  call void @_ZN2cv11bioinspired17BasicRetinaFilter6resizeEjj(ptr noundef nonnull align 8 dereferenceable(168) %8, i32 noundef %9, i32 noundef %10)
  %11 = getelementptr inbounds nuw %"class.cv::bioinspired::ImageLogPolProjection", ptr %7, i32 0, i32 11
  %12 = load double, ptr %11, align 8, !tbaa !30
  %13 = getelementptr inbounds nuw %"class.cv::bioinspired::ImageLogPolProjection", ptr %7, i32 0, i32 10
  %14 = load double, ptr %13, align 8, !tbaa !48
  %15 = call noundef zeroext i1 @_ZN2cv11bioinspired21ImageLogPolProjection14initProjectionEdd(ptr noundef nonnull align 8 dereferenceable(301) %7, double noundef %12, double noundef %14)
  call void @_ZN2cv11bioinspired21ImageLogPolProjection15clearAllBuffersEv(ptr noundef nonnull align 8 dereferenceable(301) %7)
  ret void
}