; Function Attrs: mustprogress uwtable
define hidden void @_ZN2cv11bioinspired21ImageLogPolProjection6resizeEjj(ptr noundef nonnull align 8 dereferenceable(301) %0, i32 noundef %1, i32 noundef %2) local_unnamed_addr #3 align 2 {
  %4 = getelementptr inbounds nuw i8, ptr %0, i64 8
  tail call void @_ZN2cv11bioinspired17BasicRetinaFilter6resizeEjj(ptr noundef nonnull align 8 dereferenceable(168) %4, i32 noundef %1, i32 noundef %2)
  %5 = getelementptr inbounds nuw i8, ptr %0, i64 216
  %6 = load double, ptr %5, align 8, !tbaa !29
  %7 = getelementptr inbounds nuw i8, ptr %0, i64 208
  %8 = load double, ptr %7, align 8, !tbaa !59
  %9 = tail call noundef zeroext i1 @_ZN2cv11bioinspired21ImageLogPolProjection14initProjectionEdd(ptr noundef nonnull align 8 dereferenceable(301) %0, double noundef %6, double noundef %8)
  %10 = getelementptr inbounds nuw i8, ptr %0, i64 248
  %11 = load i64, ptr %10, align 8, !tbaa !6
  %.not3.i.i.i = icmp eq i64 %11, 0
  br i1 %.not3.i.i.i, label %_ZNSt8valarrayIfEaSERKf.exit.i, label %.lr.ph.i.i.preheader.i

.lr.ph.i.i.preheader.i:                           ; preds = %3
  %12 = getelementptr inbounds nuw i8, ptr %0, i64 256
  %13 = load ptr, ptr %12, align 8, !tbaa !12
  %14 = shl nuw i64 %11, 2
  tail call void @llvm.memset.p0.i64(ptr align 4 %13, i8 0, i64 %14, i1 false), !tbaa !34, !alias.scope !60
  br label %_ZNSt8valarrayIfEaSERKf.exit.i

_ZNSt8valarrayIfEaSERKf.exit.i:                   ; preds = %.lr.ph.i.i.preheader.i, %3
  %15 = getelementptr inbounds nuw i8, ptr %0, i64 264
  %16 = load ptr, ptr %15, align 8, !tbaa !33
  %17 = load i64, ptr %16, align 8, !tbaa !6
  %.not3.i.i1.i = icmp eq i64 %17, 0
  br i1 %.not3.i.i1.i, label %_ZNSt8valarrayIfEaSERKf.exit6.i, label %.lr.ph.i.i2.preheader.i

.lr.ph.i.i2.preheader.i:                          ; preds = %_ZNSt8valarrayIfEaSERKf.exit.i
  %18 = getelementptr inbounds nuw i8, ptr %16, i64 8
  %19 = load ptr, ptr %18, align 8, !tbaa !12
  %20 = shl nuw i64 %17, 2
  tail call void @llvm.memset.p0.i64(ptr align 4 %19, i8 0, i64 %20, i1 false), !tbaa !34, !alias.scope !63
  br label %_ZNSt8valarrayIfEaSERKf.exit6.i

_ZNSt8valarrayIfEaSERKf.exit6.i:                  ; preds = %.lr.ph.i.i2.preheader.i, %_ZNSt8valarrayIfEaSERKf.exit.i
  %21 = getelementptr inbounds nuw i8, ptr %0, i64 16
  %22 = load i64, ptr %21, align 8, !tbaa !6
  %.not3.i.i.i.i.i.i = icmp eq i64 %22, 0
  br i1 %.not3.i.i.i.i.i.i, label %_ZN2cv11bioinspired17BasicRetinaFilter17clearOutputBufferEv.exit.i.i, label %.lr.ph.i.i.i.preheader.i.i.i

.lr.ph.i.i.i.preheader.i.i.i:                     ; preds = %_ZNSt8valarrayIfEaSERKf.exit6.i
  %23 = getelementptr inbounds nuw i8, ptr %0, i64 24
  %24 = load ptr, ptr %23, align 8, !tbaa !12
  %25 = shl nuw i64 %22, 2
  tail call void @llvm.memset.p0.i64(ptr align 4 %24, i8 0, i64 %25, i1 false), !tbaa !34, !alias.scope !66
  br label %_ZN2cv11bioinspired17BasicRetinaFilter17clearOutputBufferEv.exit.i.i

_ZN2cv11bioinspired17BasicRetinaFilter17clearOutputBufferEv.exit.i.i: ; preds = %.lr.ph.i.i.i.preheader.i.i.i, %_ZNSt8valarrayIfEaSERKf.exit6.i
  %26 = getelementptr inbounds nuw i8, ptr %0, i64 72
  %27 = load i64, ptr %26, align 8, !tbaa !6
  %.not3.i.i.i.i.i = icmp eq i64 %27, 0
  br i1 %.not3.i.i.i.i.i, label %_ZN2cv11bioinspired21ImageLogPolProjection15clearAllBuffersEv.exit, label %.lr.ph.i.i.preheader.i.i.i

.lr.ph.i.i.preheader.i.i.i:                       ; preds = %_ZN2cv11bioinspired17BasicRetinaFilter17clearOutputBufferEv.exit.i.i
  %28 = getelementptr inbounds nuw i8, ptr %0, i64 80
  %29 = load ptr, ptr %28, align 8, !tbaa !12
  %30 = shl nuw i64 %27, 2
  tail call void @llvm.memset.p0.i64(ptr align 4 %29, i8 0, i64 %30, i1 false), !tbaa !34, !alias.scope !69
  br label %_ZN2cv11bioinspired21ImageLogPolProjection15clearAllBuffersEv.exit

_ZN2cv11bioinspired21ImageLogPolProjection15clearAllBuffersEv.exit: ; preds = %_ZN2cv11bioinspired17BasicRetinaFilter17clearOutputBufferEv.exit.i.i, %.lr.ph.i.i.preheader.i.i.i
  ret void
}